# SymbolsHelper-Confirmed: 1.1.7-1 amd64
librandomx.so.0 librandomx0 #MINVER#
 (optional=privatelib)_Z10setPagesRWPvm@Base 1.1.7
 (optional=privatelib)_Z10setPagesRXPvm@Base 1.1.7
 (optional=privatelib)_Z11fillAes1Rx4ILb0EEvPvmS0_@Base 1.1.7
 (optional=privatelib)_Z11fillAes1Rx4ILb1EEvPvmS0_@Base 1.1.7
 (optional=privatelib)_Z11fillAes4Rx4ILb0EEvPvmS0_@Base 1.1.7
 (optional=privatelib)_Z11fillAes4Rx4ILb1EEvPvmS0_@Base 1.1.7
 (optional=privatelib)_Z11hashAes1Rx4ILb0EEvPKvmPv@Base 1.1.7
 (optional=privatelib)_Z11hashAes1Rx4ILb1EEvPKvmPv@Base 1.1.7
 (optional=privatelib)_Z11setPagesRWXPvm@Base 1.1.7
 (optional=privatelib)_Z11soft_aesdecDv2_xS_@Base 1.1.7
 (optional=privatelib)_Z11soft_aesencDv2_xS_@Base 1.1.7
 (optional=privatelib)_Z15freePagedMemoryPvm@Base 1.1.7
 (optional=privatelib)_Z16allocMemoryPagesm@Base 1.1.7
 (optional=privatelib)_Z18hashAndFillAes1Rx4ILb0EEvPvmS0_S0_@Base 1.1.7
 (optional=privatelib)_Z18hashAndFillAes1Rx4ILb1EEvPvmS0_S0_@Base 1.1.7
 (optional=privatelib)_Z18loadDoublePortablePKv@Base 1.1.7
 (optional=privatelib)_Z21allocLargePagesMemorym@Base 1.1.7
 (optional=privatelib)_Z4mulhmm@Base 1.1.7
 (optional=privatelib)_Z4rotlmj@Base 1.1.7
 (optional=privatelib)_Z4rotrmj@Base 1.1.7
 (optional=privatelib)_Z5cpuidPii@Base 1.1.7
 (optional=privatelib)_Z5smulhll@Base 1.1.7
 (optional=privatelib)_ZN10randomx_vm10initializeEv@Base 1.1.7
 (optional=privatelib)_ZN10randomx_vm10setDatasetEP15randomx_dataset@Base 1.1.7
 (optional=privatelib)_ZN10randomx_vm17resetRoundingModeEv@Base 1.1.7
 (optional=privatelib)_ZN10randomx_vm8setCacheEP13randomx_cache@Base 1.1.7
 (optional=privatelib)_ZN10randomx_vmD0Ev@Base 1.1.7
 (optional=privatelib)_ZN10randomx_vmD1Ev@Base 1.1.7
 (optional=privatelib)_ZN10randomx_vmD2Ev@Base 1.1.7
 (optional=privatelib)_ZN7randomx10CompiledVmINS_16AlignedAllocatorILm64EEELb0ELb0EE10setDatasetEP15randomx_dataset@Base 1.1.7
 (optional=privatelib)_ZN7randomx10CompiledVmINS_16AlignedAllocatorILm64EEELb0ELb0EE3runEPv@Base 1.1.7
 (optional=privatelib)_ZN7randomx10CompiledVmINS_16AlignedAllocatorILm64EEELb0ELb0EE7executeEv@Base 1.1.7
 (optional=privatelib)_ZN7randomx10CompiledVmINS_16AlignedAllocatorILm64EEELb0ELb0EEC1Ev@Base 1.1.7
 (optional=privatelib)_ZN7randomx10CompiledVmINS_16AlignedAllocatorILm64EEELb0ELb0EEC2Ev@Base 1.1.7
 (optional=privatelib)_ZN7randomx10CompiledVmINS_16AlignedAllocatorILm64EEELb0ELb0EED0Ev@Base 1.1.7
 (optional=privatelib)_ZN7randomx10CompiledVmINS_16AlignedAllocatorILm64EEELb0ELb0EED1Ev@Base 1.1.7
 (optional=privatelib)_ZN7randomx10CompiledVmINS_16AlignedAllocatorILm64EEELb0ELb0EED2Ev@Base 1.1.7
 (optional=privatelib)_ZN7randomx10CompiledVmINS_16AlignedAllocatorILm64EEELb0ELb0EEdlEPv@Base 1.1.7
 (optional=privatelib)_ZN7randomx10CompiledVmINS_16AlignedAllocatorILm64EEELb0ELb0EEnwEm@Base 1.1.7
 (optional=privatelib)_ZN7randomx10CompiledVmINS_16AlignedAllocatorILm64EEELb0ELb1EE10setDatasetEP15randomx_dataset@Base 1.1.7
 (optional=privatelib)_ZN7randomx10CompiledVmINS_16AlignedAllocatorILm64EEELb0ELb1EE3runEPv@Base 1.1.7
 (optional=privatelib)_ZN7randomx10CompiledVmINS_16AlignedAllocatorILm64EEELb0ELb1EE7executeEv@Base 1.1.7
 (optional=privatelib)_ZN7randomx10CompiledVmINS_16AlignedAllocatorILm64EEELb0ELb1EEC1Ev@Base 1.1.7
 (optional=privatelib)_ZN7randomx10CompiledVmINS_16AlignedAllocatorILm64EEELb0ELb1EEC2Ev@Base 1.1.7
 (optional=privatelib)_ZN7randomx10CompiledVmINS_16AlignedAllocatorILm64EEELb0ELb1EED0Ev@Base 1.1.7
 (optional=privatelib)_ZN7randomx10CompiledVmINS_16AlignedAllocatorILm64EEELb0ELb1EED1Ev@Base 1.1.7
 (optional=privatelib)_ZN7randomx10CompiledVmINS_16AlignedAllocatorILm64EEELb0ELb1EED2Ev@Base 1.1.7
 (optional=privatelib)_ZN7randomx10CompiledVmINS_16AlignedAllocatorILm64EEELb0ELb1EEdlEPv@Base 1.1.7
 (optional=privatelib)_ZN7randomx10CompiledVmINS_16AlignedAllocatorILm64EEELb0ELb1EEnwEm@Base 1.1.7
 (optional=privatelib)_ZN7randomx10CompiledVmINS_16AlignedAllocatorILm64EEELb1ELb0EE10setDatasetEP15randomx_dataset@Base 1.1.7
 (optional=privatelib)_ZN7randomx10CompiledVmINS_16AlignedAllocatorILm64EEELb1ELb0EE3runEPv@Base 1.1.7
 (optional=privatelib)_ZN7randomx10CompiledVmINS_16AlignedAllocatorILm64EEELb1ELb0EE7executeEv@Base 1.1.7
 (optional=privatelib)_ZN7randomx10CompiledVmINS_16AlignedAllocatorILm64EEELb1ELb0EEC1Ev@Base 1.1.7
 (optional=privatelib)_ZN7randomx10CompiledVmINS_16AlignedAllocatorILm64EEELb1ELb0EEC2Ev@Base 1.1.7
 (optional=privatelib)_ZN7randomx10CompiledVmINS_16AlignedAllocatorILm64EEELb1ELb0EED0Ev@Base 1.1.7
 (optional=privatelib)_ZN7randomx10CompiledVmINS_16AlignedAllocatorILm64EEELb1ELb0EED1Ev@Base 1.1.7
 (optional=privatelib)_ZN7randomx10CompiledVmINS_16AlignedAllocatorILm64EEELb1ELb0EED2Ev@Base 1.1.7
 (optional=privatelib)_ZN7randomx10CompiledVmINS_16AlignedAllocatorILm64EEELb1ELb0EEdlEPv@Base 1.1.7
 (optional=privatelib)_ZN7randomx10CompiledVmINS_16AlignedAllocatorILm64EEELb1ELb0EEnwEm@Base 1.1.7
 (optional=privatelib)_ZN7randomx10CompiledVmINS_16AlignedAllocatorILm64EEELb1ELb1EE10setDatasetEP15randomx_dataset@Base 1.1.7
 (optional=privatelib)_ZN7randomx10CompiledVmINS_16AlignedAllocatorILm64EEELb1ELb1EE3runEPv@Base 1.1.7
 (optional=privatelib)_ZN7randomx10CompiledVmINS_16AlignedAllocatorILm64EEELb1ELb1EE7executeEv@Base 1.1.7
 (optional=privatelib)_ZN7randomx10CompiledVmINS_16AlignedAllocatorILm64EEELb1ELb1EEC1Ev@Base 1.1.7
 (optional=privatelib)_ZN7randomx10CompiledVmINS_16AlignedAllocatorILm64EEELb1ELb1EEC2Ev@Base 1.1.7
 (optional=privatelib)_ZN7randomx10CompiledVmINS_16AlignedAllocatorILm64EEELb1ELb1EED0Ev@Base 1.1.7
 (optional=privatelib)_ZN7randomx10CompiledVmINS_16AlignedAllocatorILm64EEELb1ELb1EED1Ev@Base 1.1.7
 (optional=privatelib)_ZN7randomx10CompiledVmINS_16AlignedAllocatorILm64EEELb1ELb1EED2Ev@Base 1.1.7
 (optional=privatelib)_ZN7randomx10CompiledVmINS_16AlignedAllocatorILm64EEELb1ELb1EEdlEPv@Base 1.1.7
 (optional=privatelib)_ZN7randomx10CompiledVmINS_16AlignedAllocatorILm64EEELb1ELb1EEnwEm@Base 1.1.7
 (optional=privatelib)_ZN7randomx10CompiledVmINS_18LargePageAllocatorELb0ELb0EE10setDatasetEP15randomx_dataset@Base 1.1.7
 (optional=privatelib)_ZN7randomx10CompiledVmINS_18LargePageAllocatorELb0ELb0EE3runEPv@Base 1.1.7
 (optional=privatelib)_ZN7randomx10CompiledVmINS_18LargePageAllocatorELb0ELb0EE7executeEv@Base 1.1.7
 (optional=privatelib)_ZN7randomx10CompiledVmINS_18LargePageAllocatorELb0ELb0EEC1Ev@Base 1.1.7
 (optional=privatelib)_ZN7randomx10CompiledVmINS_18LargePageAllocatorELb0ELb0EEC2Ev@Base 1.1.7
 (optional=privatelib)_ZN7randomx10CompiledVmINS_18LargePageAllocatorELb0ELb0EED0Ev@Base 1.1.7
 (optional=privatelib)_ZN7randomx10CompiledVmINS_18LargePageAllocatorELb0ELb0EED1Ev@Base 1.1.7
 (optional=privatelib)_ZN7randomx10CompiledVmINS_18LargePageAllocatorELb0ELb0EED2Ev@Base 1.1.7
 (optional=privatelib)_ZN7randomx10CompiledVmINS_18LargePageAllocatorELb0ELb0EEdlEPv@Base 1.1.7
 (optional=privatelib)_ZN7randomx10CompiledVmINS_18LargePageAllocatorELb0ELb0EEnwEm@Base 1.1.7
 (optional=privatelib)_ZN7randomx10CompiledVmINS_18LargePageAllocatorELb0ELb1EE10setDatasetEP15randomx_dataset@Base 1.1.7
 (optional=privatelib)_ZN7randomx10CompiledVmINS_18LargePageAllocatorELb0ELb1EE3runEPv@Base 1.1.7
 (optional=privatelib)_ZN7randomx10CompiledVmINS_18LargePageAllocatorELb0ELb1EE7executeEv@Base 1.1.7
 (optional=privatelib)_ZN7randomx10CompiledVmINS_18LargePageAllocatorELb0ELb1EEC1Ev@Base 1.1.7
 (optional=privatelib)_ZN7randomx10CompiledVmINS_18LargePageAllocatorELb0ELb1EEC2Ev@Base 1.1.7
 (optional=privatelib)_ZN7randomx10CompiledVmINS_18LargePageAllocatorELb0ELb1EED0Ev@Base 1.1.7
 (optional=privatelib)_ZN7randomx10CompiledVmINS_18LargePageAllocatorELb0ELb1EED1Ev@Base 1.1.7
 (optional=privatelib)_ZN7randomx10CompiledVmINS_18LargePageAllocatorELb0ELb1EED2Ev@Base 1.1.7
 (optional=privatelib)_ZN7randomx10CompiledVmINS_18LargePageAllocatorELb0ELb1EEdlEPv@Base 1.1.7
 (optional=privatelib)_ZN7randomx10CompiledVmINS_18LargePageAllocatorELb0ELb1EEnwEm@Base 1.1.7
 (optional=privatelib)_ZN7randomx10CompiledVmINS_18LargePageAllocatorELb1ELb0EE10setDatasetEP15randomx_dataset@Base 1.1.7
 (optional=privatelib)_ZN7randomx10CompiledVmINS_18LargePageAllocatorELb1ELb0EE3runEPv@Base 1.1.7
 (optional=privatelib)_ZN7randomx10CompiledVmINS_18LargePageAllocatorELb1ELb0EE7executeEv@Base 1.1.7
 (optional=privatelib)_ZN7randomx10CompiledVmINS_18LargePageAllocatorELb1ELb0EEC1Ev@Base 1.1.7
 (optional=privatelib)_ZN7randomx10CompiledVmINS_18LargePageAllocatorELb1ELb0EEC2Ev@Base 1.1.7
 (optional=privatelib)_ZN7randomx10CompiledVmINS_18LargePageAllocatorELb1ELb0EED0Ev@Base 1.1.7
 (optional=privatelib)_ZN7randomx10CompiledVmINS_18LargePageAllocatorELb1ELb0EED1Ev@Base 1.1.7
 (optional=privatelib)_ZN7randomx10CompiledVmINS_18LargePageAllocatorELb1ELb0EED2Ev@Base 1.1.7
 (optional=privatelib)_ZN7randomx10CompiledVmINS_18LargePageAllocatorELb1ELb0EEdlEPv@Base 1.1.7
 (optional=privatelib)_ZN7randomx10CompiledVmINS_18LargePageAllocatorELb1ELb0EEnwEm@Base 1.1.7
 (optional=privatelib)_ZN7randomx10CompiledVmINS_18LargePageAllocatorELb1ELb1EE10setDatasetEP15randomx_dataset@Base 1.1.7
 (optional=privatelib)_ZN7randomx10CompiledVmINS_18LargePageAllocatorELb1ELb1EE3runEPv@Base 1.1.7
 (optional=privatelib)_ZN7randomx10CompiledVmINS_18LargePageAllocatorELb1ELb1EE7executeEv@Base 1.1.7
 (optional=privatelib)_ZN7randomx10CompiledVmINS_18LargePageAllocatorELb1ELb1EEC1Ev@Base 1.1.7
 (optional=privatelib)_ZN7randomx10CompiledVmINS_18LargePageAllocatorELb1ELb1EEC2Ev@Base 1.1.7
 (optional=privatelib)_ZN7randomx10CompiledVmINS_18LargePageAllocatorELb1ELb1EED0Ev@Base 1.1.7
 (optional=privatelib)_ZN7randomx10CompiledVmINS_18LargePageAllocatorELb1ELb1EED1Ev@Base 1.1.7
 (optional=privatelib)_ZN7randomx10CompiledVmINS_18LargePageAllocatorELb1ELb1EED2Ev@Base 1.1.7
 (optional=privatelib)_ZN7randomx10CompiledVmINS_18LargePageAllocatorELb1ELb1EEdlEPv@Base 1.1.7
 (optional=privatelib)_ZN7randomx10CompiledVmINS_18LargePageAllocatorELb1ELb1EEnwEm@Base 1.1.7
 (optional=privatelib)_ZN7randomx10codeShhEndE@Base 1.1.7
 (optional=privatelib)_ZN7randomx11Instruction5namesE@Base 1.1.7
 (optional=privatelib)_ZN7randomx11Instruction6engineE@Base 1.1.7
 (optional=privatelib)_ZN7randomx11codeLoopEndE@Base 1.1.7
 (optional=privatelib)_ZN7randomx11codeShhInitE@Base 1.1.7
 (optional=privatelib)_ZN7randomx11codeShhLoadE@Base 1.1.7
 (optional=privatelib)_ZN7randomx11initDatasetEP13randomx_cachePhjj@Base 1.1.7
 (optional=privatelib)_ZN7randomx12codeEpilogueE@Base 1.1.7
 (optional=privatelib)_ZN7randomx12codeLoopLoadE@Base 1.1.7
 (optional=privatelib)_ZN7randomx12codePrologueE@Base 1.1.7
 (optional=privatelib)_ZN7randomx12deallocCacheINS_16AlignedAllocatorILm64EEEEEvP13randomx_cache@Base 1.1.7
 (optional=privatelib)_ZN7randomx12deallocCacheINS_18LargePageAllocatorEEEvP13randomx_cache@Base 1.1.7
 (optional=privatelib)_ZN7randomx13DecoderBuffer13decodeBuffersE@Base 1.1.7
 (optional=privatelib)_ZN7randomx13DecoderBuffer15decodeBuffer484E@Base 1.1.7
 (optional=privatelib)_ZN7randomx13DecoderBuffer15decodeBuffer493E@Base 1.1.7
 (optional=privatelib)_ZN7randomx13DecoderBuffer16decodeBuffer3310E@Base 1.1.7
 (optional=privatelib)_ZN7randomx13DecoderBuffer16decodeBuffer3733E@Base 1.1.7
 (optional=privatelib)_ZN7randomx13DecoderBuffer16decodeBuffer4444E@Base 1.1.7
 (optional=privatelib)_ZN7randomx13DecoderBuffer16decodeBuffer7333E@Base 1.1.7
 (optional=privatelib)_ZN7randomx13DecoderBuffer7DefaultE@Base 1.1.7
 (optional=privatelib)_ZN7randomx13InterpretedVmINS_16AlignedAllocatorILm64EEELb0EE10setDatasetEP15randomx_dataset@Base 1.1.7
 (optional=privatelib)_ZN7randomx13InterpretedVmINS_16AlignedAllocatorILm64EEELb0EE11datasetReadEmRA8_m@Base 1.1.7
 (optional=privatelib)_ZN7randomx13InterpretedVmINS_16AlignedAllocatorILm64EEELb0EE15datasetPrefetchEm@Base 1.1.7
 (optional=privatelib)_ZN7randomx13InterpretedVmINS_16AlignedAllocatorILm64EEELb0EE3runEPv@Base 1.1.7
 (optional=privatelib)_ZN7randomx13InterpretedVmINS_16AlignedAllocatorILm64EEELb0EE7executeEv@Base 1.1.7
 (optional=privatelib)_ZN7randomx13InterpretedVmINS_16AlignedAllocatorILm64EEELb0EED0Ev@Base 1.1.7
 (optional=privatelib)_ZN7randomx13InterpretedVmINS_16AlignedAllocatorILm64EEELb0EED1Ev@Base 1.1.7
 (optional=privatelib)_ZN7randomx13InterpretedVmINS_16AlignedAllocatorILm64EEELb0EED2Ev@Base 1.1.7
 (optional=privatelib)_ZN7randomx13InterpretedVmINS_16AlignedAllocatorILm64EEELb0EEdlEPv@Base 1.1.7
 (optional=privatelib)_ZN7randomx13InterpretedVmINS_16AlignedAllocatorILm64EEELb0EEnwEm@Base 1.1.7
 (optional=privatelib)_ZN7randomx13InterpretedVmINS_16AlignedAllocatorILm64EEELb1EE10setDatasetEP15randomx_dataset@Base 1.1.7
 (optional=privatelib)_ZN7randomx13InterpretedVmINS_16AlignedAllocatorILm64EEELb1EE11datasetReadEmRA8_m@Base 1.1.7
 (optional=privatelib)_ZN7randomx13InterpretedVmINS_16AlignedAllocatorILm64EEELb1EE15datasetPrefetchEm@Base 1.1.7
 (optional=privatelib)_ZN7randomx13InterpretedVmINS_16AlignedAllocatorILm64EEELb1EE3runEPv@Base 1.1.7
 (optional=privatelib)_ZN7randomx13InterpretedVmINS_16AlignedAllocatorILm64EEELb1EE7executeEv@Base 1.1.7
 (optional=privatelib)_ZN7randomx13InterpretedVmINS_16AlignedAllocatorILm64EEELb1EED0Ev@Base 1.1.7
 (optional=privatelib)_ZN7randomx13InterpretedVmINS_16AlignedAllocatorILm64EEELb1EED1Ev@Base 1.1.7
 (optional=privatelib)_ZN7randomx13InterpretedVmINS_16AlignedAllocatorILm64EEELb1EED2Ev@Base 1.1.7
 (optional=privatelib)_ZN7randomx13InterpretedVmINS_16AlignedAllocatorILm64EEELb1EEdlEPv@Base 1.1.7
 (optional=privatelib)_ZN7randomx13InterpretedVmINS_16AlignedAllocatorILm64EEELb1EEnwEm@Base 1.1.7
 (optional=privatelib)_ZN7randomx13InterpretedVmINS_18LargePageAllocatorELb0EE10setDatasetEP15randomx_dataset@Base 1.1.7
 (optional=privatelib)_ZN7randomx13InterpretedVmINS_18LargePageAllocatorELb0EE11datasetReadEmRA8_m@Base 1.1.7
 (optional=privatelib)_ZN7randomx13InterpretedVmINS_18LargePageAllocatorELb0EE15datasetPrefetchEm@Base 1.1.7
 (optional=privatelib)_ZN7randomx13InterpretedVmINS_18LargePageAllocatorELb0EE3runEPv@Base 1.1.7
 (optional=privatelib)_ZN7randomx13InterpretedVmINS_18LargePageAllocatorELb0EE7executeEv@Base 1.1.7
 (optional=privatelib)_ZN7randomx13InterpretedVmINS_18LargePageAllocatorELb0EED0Ev@Base 1.1.7
 (optional=privatelib)_ZN7randomx13InterpretedVmINS_18LargePageAllocatorELb0EED1Ev@Base 1.1.7
 (optional=privatelib)_ZN7randomx13InterpretedVmINS_18LargePageAllocatorELb0EED2Ev@Base 1.1.7
 (optional=privatelib)_ZN7randomx13InterpretedVmINS_18LargePageAllocatorELb0EEdlEPv@Base 1.1.7
 (optional=privatelib)_ZN7randomx13InterpretedVmINS_18LargePageAllocatorELb0EEnwEm@Base 1.1.7
 (optional=privatelib)_ZN7randomx13InterpretedVmINS_18LargePageAllocatorELb1EE10setDatasetEP15randomx_dataset@Base 1.1.7
 (optional=privatelib)_ZN7randomx13InterpretedVmINS_18LargePageAllocatorELb1EE11datasetReadEmRA8_m@Base 1.1.7
 (optional=privatelib)_ZN7randomx13InterpretedVmINS_18LargePageAllocatorELb1EE15datasetPrefetchEm@Base 1.1.7
 (optional=privatelib)_ZN7randomx13InterpretedVmINS_18LargePageAllocatorELb1EE3runEPv@Base 1.1.7
 (optional=privatelib)_ZN7randomx13InterpretedVmINS_18LargePageAllocatorELb1EE7executeEv@Base 1.1.7
 (optional=privatelib)_ZN7randomx13InterpretedVmINS_18LargePageAllocatorELb1EED0Ev@Base 1.1.7
 (optional=privatelib)_ZN7randomx13InterpretedVmINS_18LargePageAllocatorELb1EED1Ev@Base 1.1.7
 (optional=privatelib)_ZN7randomx13InterpretedVmINS_18LargePageAllocatorELb1EED2Ev@Base 1.1.7
 (optional=privatelib)_ZN7randomx13InterpretedVmINS_18LargePageAllocatorELb1EEdlEPv@Base 1.1.7
 (optional=privatelib)_ZN7randomx13InterpretedVmINS_18LargePageAllocatorELb1EEnwEm@Base 1.1.7
 (optional=privatelib)_ZN7randomx13codeLoopBeginE@Base 1.1.7
 (optional=privatelib)_ZN7randomx13codeLoopStoreE@Base 1.1.7
 (optional=privatelib)_ZN7randomx14JitCompilerX8610h_IMUL_RCPERNS_11InstructionEi@Base 1.1.7
 (optional=privatelib)_ZN7randomx14JitCompilerX8610h_ISMULH_MERNS_11InstructionEi@Base 1.1.7
 (optional=privatelib)_ZN7randomx14JitCompilerX8610h_ISMULH_RERNS_11InstructionEi@Base 1.1.7
 (optional=privatelib)_ZN7randomx14JitCompilerX8611getCodeSizeEv@Base 1.1.7
 (optional=privatelib)_ZN7randomx14JitCompilerX8612generateCodeERNS_11InstructionEi@Base 1.1.7
 (optional=privatelib)_ZN7randomx14JitCompilerX8613enableWritingEv@Base 1.1.7
 (optional=privatelib)_ZN7randomx14JitCompilerX8613genAddressImmERNS_11InstructionE@Base 1.1.7
 (optional=privatelib)_ZN7randomx14JitCompilerX8613genAddressRegERNS_11InstructionEb@Base 1.1.7
 (optional=privatelib)_ZN7randomx14JitCompilerX8615enableExecutionEv@Base 1.1.7
 (optional=privatelib)_ZN7randomx14JitCompilerX8615generateProgramERNS_7ProgramERNS_20ProgramConfigurationE@Base 1.1.7
 (optional=privatelib)_ZN7randomx14JitCompilerX8616genAddressRegDstERNS_11InstructionE@Base 1.1.7
 (optional=privatelib)_ZN7randomx14JitCompilerX8620generateProgramLightERNS_7ProgramERNS_20ProgramConfigurationEj@Base 1.1.7
 (optional=privatelib)_ZN7randomx14JitCompilerX8623generateDatasetInitCodeEv@Base 1.1.7
 (optional=privatelib)_ZN7randomx14JitCompilerX8623generateProgramEpilogueERNS_7ProgramERNS_20ProgramConfigurationE@Base 1.1.7
 (optional=privatelib)_ZN7randomx14JitCompilerX8623generateProgramPrologueERNS_7ProgramERNS_20ProgramConfigurationE@Base 1.1.7
 (optional=privatelib)_ZN7randomx14JitCompilerX8623generateSuperscalarCodeERNS_11InstructionERSt6vectorImSaImEE@Base 1.1.7
 (optional=privatelib)_ZN7randomx14JitCompilerX8623generateSuperscalarHashILm8EEEvRAT__NS_18SuperscalarProgramERSt6vectorImSaImEE@Base 1.1.7
 (optional=privatelib)_ZN7randomx14JitCompilerX865h_NOPERNS_11InstructionEi@Base 1.1.7
 (optional=privatelib)_ZN7randomx14JitCompilerX866engineE@Base 1.1.7
 (optional=privatelib)_ZN7randomx14JitCompilerX866genSIBEiii@Base 1.1.7
 (optional=privatelib)_ZN7randomx14JitCompilerX868h_FADD_MERNS_11InstructionEi@Base 1.1.7
 (optional=privatelib)_ZN7randomx14JitCompilerX868h_FADD_RERNS_11InstructionEi@Base 1.1.7
 (optional=privatelib)_ZN7randomx14JitCompilerX868h_FDIV_MERNS_11InstructionEi@Base 1.1.7
 (optional=privatelib)_ZN7randomx14JitCompilerX868h_FMUL_RERNS_11InstructionEi@Base 1.1.7
 (optional=privatelib)_ZN7randomx14JitCompilerX868h_FSUB_MERNS_11InstructionEi@Base 1.1.7
 (optional=privatelib)_ZN7randomx14JitCompilerX868h_FSUB_RERNS_11InstructionEi@Base 1.1.7
 (optional=privatelib)_ZN7randomx14JitCompilerX868h_IADD_MERNS_11InstructionEi@Base 1.1.7
 (optional=privatelib)_ZN7randomx14JitCompilerX868h_IMUL_MERNS_11InstructionEi@Base 1.1.7
 (optional=privatelib)_ZN7randomx14JitCompilerX868h_IMUL_RERNS_11InstructionEi@Base 1.1.7
 (optional=privatelib)_ZN7randomx14JitCompilerX868h_INEG_RERNS_11InstructionEi@Base 1.1.7
 (optional=privatelib)_ZN7randomx14JitCompilerX868h_IROL_RERNS_11InstructionEi@Base 1.1.7
 (optional=privatelib)_ZN7randomx14JitCompilerX868h_IROR_RERNS_11InstructionEi@Base 1.1.7
 (optional=privatelib)_ZN7randomx14JitCompilerX868h_ISTOREERNS_11InstructionEi@Base 1.1.7
 (optional=privatelib)_ZN7randomx14JitCompilerX868h_ISUB_MERNS_11InstructionEi@Base 1.1.7
 (optional=privatelib)_ZN7randomx14JitCompilerX868h_ISUB_RERNS_11InstructionEi@Base 1.1.7
 (optional=privatelib)_ZN7randomx14JitCompilerX868h_IXOR_MERNS_11InstructionEi@Base 1.1.7
 (optional=privatelib)_ZN7randomx14JitCompilerX868h_IXOR_RERNS_11InstructionEi@Base 1.1.7
 (optional=privatelib)_ZN7randomx14JitCompilerX869enableAllEv@Base 1.1.7
 (optional=privatelib)_ZN7randomx14JitCompilerX869h_CBRANCHERNS_11InstructionEi@Base 1.1.7
 (optional=privatelib)_ZN7randomx14JitCompilerX869h_CFROUNDERNS_11InstructionEi@Base 1.1.7
 (optional=privatelib)_ZN7randomx14JitCompilerX869h_FSCAL_RERNS_11InstructionEi@Base 1.1.7
 (optional=privatelib)_ZN7randomx14JitCompilerX869h_FSQRT_RERNS_11InstructionEi@Base 1.1.7
 (optional=privatelib)_ZN7randomx14JitCompilerX869h_FSWAP_RERNS_11InstructionEi@Base 1.1.7
 (optional=privatelib)_ZN7randomx14JitCompilerX869h_IADD_RSERNS_11InstructionEi@Base 1.1.7
 (optional=privatelib)_ZN7randomx14JitCompilerX869h_IMULH_MERNS_11InstructionEi@Base 1.1.7
 (optional=privatelib)_ZN7randomx14JitCompilerX869h_IMULH_RERNS_11InstructionEi@Base 1.1.7
 (optional=privatelib)_ZN7randomx14JitCompilerX869h_ISWAP_RERNS_11InstructionEi@Base 1.1.7
 (optional=privatelib)_ZN7randomx14JitCompilerX86C1Ev@Base 1.1.7
 (optional=privatelib)_ZN7randomx14JitCompilerX86C2Ev@Base 1.1.7
 (optional=privatelib)_ZN7randomx14JitCompilerX86D1Ev@Base 1.1.7
 (optional=privatelib)_ZN7randomx14JitCompilerX86D2Ev@Base 1.1.7
 (optional=privatelib)_ZN7randomx14codeProgramEndE@Base 1.1.7
 (optional=privatelib)_ZN7randomx14deallocDatasetINS_16AlignedAllocatorILm64EEEEEvP15randomx_dataset@Base 1.1.7
 (optional=privatelib)_ZN7randomx14deallocDatasetINS_18LargePageAllocatorEEEvP15randomx_dataset@Base 1.1.7
 (optional=privatelib)_ZN7randomx15Blake2Generator7getByteEv@Base 1.1.7
 (optional=privatelib)_ZN7randomx15Blake2Generator9checkDataEm@Base 1.1.7
 (optional=privatelib)_ZN7randomx15Blake2Generator9getUInt32Ev@Base 1.1.7
 (optional=privatelib)_ZN7randomx15Blake2GeneratorC1EPKvmi@Base 1.1.7
 (optional=privatelib)_ZN7randomx15Blake2GeneratorC2EPKvmi@Base 1.1.7
 (optional=privatelib)_ZN7randomx15BytecodeMachine18compileInstructionERNS_11InstructionEiRNS_19InstructionByteCodeE@Base 1.1.7
 (optional=privatelib)_ZN7randomx15BytecodeMachine18executeInstructionERNS_19InstructionByteCodeERiPhRNS_20ProgramConfigurationE@Base 1.1.7
 (optional=privatelib)_ZN7randomx15BytecodeMachine4zeroE@Base 1.1.7
 (optional=privatelib)_ZN7randomx15CompiledLightVmINS_16AlignedAllocatorILm64EEELb0ELb0EE10setDatasetEP15randomx_dataset@Base 1.1.7
 (optional=privatelib)_ZN7randomx15CompiledLightVmINS_16AlignedAllocatorILm64EEELb0ELb0EE3runEPv@Base 1.1.7
 (optional=privatelib)_ZN7randomx15CompiledLightVmINS_16AlignedAllocatorILm64EEELb0ELb0EE8setCacheEP13randomx_cache@Base 1.1.7
 (optional=privatelib)_ZN7randomx15CompiledLightVmINS_16AlignedAllocatorILm64EEELb0ELb0EED0Ev@Base 1.1.7
 (optional=privatelib)_ZN7randomx15CompiledLightVmINS_16AlignedAllocatorILm64EEELb0ELb0EED1Ev@Base 1.1.7
 (optional=privatelib)_ZN7randomx15CompiledLightVmINS_16AlignedAllocatorILm64EEELb0ELb0EED2Ev@Base 1.1.7
 (optional=privatelib)_ZN7randomx15CompiledLightVmINS_16AlignedAllocatorILm64EEELb0ELb0EEdlEPv@Base 1.1.7
 (optional=privatelib)_ZN7randomx15CompiledLightVmINS_16AlignedAllocatorILm64EEELb0ELb0EEnwEm@Base 1.1.7
 (optional=privatelib)_ZN7randomx15CompiledLightVmINS_16AlignedAllocatorILm64EEELb0ELb1EE10setDatasetEP15randomx_dataset@Base 1.1.7
 (optional=privatelib)_ZN7randomx15CompiledLightVmINS_16AlignedAllocatorILm64EEELb0ELb1EE3runEPv@Base 1.1.7
 (optional=privatelib)_ZN7randomx15CompiledLightVmINS_16AlignedAllocatorILm64EEELb0ELb1EE8setCacheEP13randomx_cache@Base 1.1.7
 (optional=privatelib)_ZN7randomx15CompiledLightVmINS_16AlignedAllocatorILm64EEELb0ELb1EED0Ev@Base 1.1.7
 (optional=privatelib)_ZN7randomx15CompiledLightVmINS_16AlignedAllocatorILm64EEELb0ELb1EED1Ev@Base 1.1.7
 (optional=privatelib)_ZN7randomx15CompiledLightVmINS_16AlignedAllocatorILm64EEELb0ELb1EED2Ev@Base 1.1.7
 (optional=privatelib)_ZN7randomx15CompiledLightVmINS_16AlignedAllocatorILm64EEELb0ELb1EEdlEPv@Base 1.1.7
 (optional=privatelib)_ZN7randomx15CompiledLightVmINS_16AlignedAllocatorILm64EEELb0ELb1EEnwEm@Base 1.1.7
 (optional=privatelib)_ZN7randomx15CompiledLightVmINS_16AlignedAllocatorILm64EEELb1ELb0EE10setDatasetEP15randomx_dataset@Base 1.1.7
 (optional=privatelib)_ZN7randomx15CompiledLightVmINS_16AlignedAllocatorILm64EEELb1ELb0EE3runEPv@Base 1.1.7
 (optional=privatelib)_ZN7randomx15CompiledLightVmINS_16AlignedAllocatorILm64EEELb1ELb0EE8setCacheEP13randomx_cache@Base 1.1.7
 (optional=privatelib)_ZN7randomx15CompiledLightVmINS_16AlignedAllocatorILm64EEELb1ELb0EED0Ev@Base 1.1.7
 (optional=privatelib)_ZN7randomx15CompiledLightVmINS_16AlignedAllocatorILm64EEELb1ELb0EED1Ev@Base 1.1.7
 (optional=privatelib)_ZN7randomx15CompiledLightVmINS_16AlignedAllocatorILm64EEELb1ELb0EED2Ev@Base 1.1.7
 (optional=privatelib)_ZN7randomx15CompiledLightVmINS_16AlignedAllocatorILm64EEELb1ELb0EEdlEPv@Base 1.1.7
 (optional=privatelib)_ZN7randomx15CompiledLightVmINS_16AlignedAllocatorILm64EEELb1ELb0EEnwEm@Base 1.1.7
 (optional=privatelib)_ZN7randomx15CompiledLightVmINS_16AlignedAllocatorILm64EEELb1ELb1EE10setDatasetEP15randomx_dataset@Base 1.1.7
 (optional=privatelib)_ZN7randomx15CompiledLightVmINS_16AlignedAllocatorILm64EEELb1ELb1EE3runEPv@Base 1.1.7
 (optional=privatelib)_ZN7randomx15CompiledLightVmINS_16AlignedAllocatorILm64EEELb1ELb1EE8setCacheEP13randomx_cache@Base 1.1.7
 (optional=privatelib)_ZN7randomx15CompiledLightVmINS_16AlignedAllocatorILm64EEELb1ELb1EED0Ev@Base 1.1.7
 (optional=privatelib)_ZN7randomx15CompiledLightVmINS_16AlignedAllocatorILm64EEELb1ELb1EED1Ev@Base 1.1.7
 (optional=privatelib)_ZN7randomx15CompiledLightVmINS_16AlignedAllocatorILm64EEELb1ELb1EED2Ev@Base 1.1.7
 (optional=privatelib)_ZN7randomx15CompiledLightVmINS_16AlignedAllocatorILm64EEELb1ELb1EEdlEPv@Base 1.1.7
 (optional=privatelib)_ZN7randomx15CompiledLightVmINS_16AlignedAllocatorILm64EEELb1ELb1EEnwEm@Base 1.1.7
 (optional=privatelib)_ZN7randomx15CompiledLightVmINS_18LargePageAllocatorELb0ELb0EE10setDatasetEP15randomx_dataset@Base 1.1.7
 (optional=privatelib)_ZN7randomx15CompiledLightVmINS_18LargePageAllocatorELb0ELb0EE3runEPv@Base 1.1.7
 (optional=privatelib)_ZN7randomx15CompiledLightVmINS_18LargePageAllocatorELb0ELb0EE8setCacheEP13randomx_cache@Base 1.1.7
 (optional=privatelib)_ZN7randomx15CompiledLightVmINS_18LargePageAllocatorELb0ELb0EED0Ev@Base 1.1.7
 (optional=privatelib)_ZN7randomx15CompiledLightVmINS_18LargePageAllocatorELb0ELb0EED1Ev@Base 1.1.7
 (optional=privatelib)_ZN7randomx15CompiledLightVmINS_18LargePageAllocatorELb0ELb0EED2Ev@Base 1.1.7
 (optional=privatelib)_ZN7randomx15CompiledLightVmINS_18LargePageAllocatorELb0ELb0EEdlEPv@Base 1.1.7
 (optional=privatelib)_ZN7randomx15CompiledLightVmINS_18LargePageAllocatorELb0ELb0EEnwEm@Base 1.1.7
 (optional=privatelib)_ZN7randomx15CompiledLightVmINS_18LargePageAllocatorELb0ELb1EE10setDatasetEP15randomx_dataset@Base 1.1.7
 (optional=privatelib)_ZN7randomx15CompiledLightVmINS_18LargePageAllocatorELb0ELb1EE3runEPv@Base 1.1.7
 (optional=privatelib)_ZN7randomx15CompiledLightVmINS_18LargePageAllocatorELb0ELb1EE8setCacheEP13randomx_cache@Base 1.1.7
 (optional=privatelib)_ZN7randomx15CompiledLightVmINS_18LargePageAllocatorELb0ELb1EED0Ev@Base 1.1.7
 (optional=privatelib)_ZN7randomx15CompiledLightVmINS_18LargePageAllocatorELb0ELb1EED1Ev@Base 1.1.7
 (optional=privatelib)_ZN7randomx15CompiledLightVmINS_18LargePageAllocatorELb0ELb1EED2Ev@Base 1.1.7
 (optional=privatelib)_ZN7randomx15CompiledLightVmINS_18LargePageAllocatorELb0ELb1EEdlEPv@Base 1.1.7
 (optional=privatelib)_ZN7randomx15CompiledLightVmINS_18LargePageAllocatorELb0ELb1EEnwEm@Base 1.1.7
 (optional=privatelib)_ZN7randomx15CompiledLightVmINS_18LargePageAllocatorELb1ELb0EE10setDatasetEP15randomx_dataset@Base 1.1.7
 (optional=privatelib)_ZN7randomx15CompiledLightVmINS_18LargePageAllocatorELb1ELb0EE3runEPv@Base 1.1.7
 (optional=privatelib)_ZN7randomx15CompiledLightVmINS_18LargePageAllocatorELb1ELb0EE8setCacheEP13randomx_cache@Base 1.1.7
 (optional=privatelib)_ZN7randomx15CompiledLightVmINS_18LargePageAllocatorELb1ELb0EED0Ev@Base 1.1.7
 (optional=privatelib)_ZN7randomx15CompiledLightVmINS_18LargePageAllocatorELb1ELb0EED1Ev@Base 1.1.7
 (optional=privatelib)_ZN7randomx15CompiledLightVmINS_18LargePageAllocatorELb1ELb0EED2Ev@Base 1.1.7
 (optional=privatelib)_ZN7randomx15CompiledLightVmINS_18LargePageAllocatorELb1ELb0EEdlEPv@Base 1.1.7
 (optional=privatelib)_ZN7randomx15CompiledLightVmINS_18LargePageAllocatorELb1ELb0EEnwEm@Base 1.1.7
 (optional=privatelib)_ZN7randomx15CompiledLightVmINS_18LargePageAllocatorELb1ELb1EE10setDatasetEP15randomx_dataset@Base 1.1.7
 (optional=privatelib)_ZN7randomx15CompiledLightVmINS_18LargePageAllocatorELb1ELb1EE3runEPv@Base 1.1.7
 (optional=privatelib)_ZN7randomx15CompiledLightVmINS_18LargePageAllocatorELb1ELb1EE8setCacheEP13randomx_cache@Base 1.1.7
 (optional=privatelib)_ZN7randomx15CompiledLightVmINS_18LargePageAllocatorELb1ELb1EED0Ev@Base 1.1.7
 (optional=privatelib)_ZN7randomx15CompiledLightVmINS_18LargePageAllocatorELb1ELb1EED1Ev@Base 1.1.7
 (optional=privatelib)_ZN7randomx15CompiledLightVmINS_18LargePageAllocatorELb1ELb1EED2Ev@Base 1.1.7
 (optional=privatelib)_ZN7randomx15CompiledLightVmINS_18LargePageAllocatorELb1ELb1EEdlEPv@Base 1.1.7
 (optional=privatelib)_ZN7randomx15CompiledLightVmINS_18LargePageAllocatorELb1ELb1EEnwEm@Base 1.1.7
 (optional=privatelib)_ZN7randomx15codeDatasetInitE@Base 1.1.7
 (optional=privatelib)_ZN7randomx15codeProgamStartE@Base 1.1.7
 (optional=privatelib)_ZN7randomx15codeReadDatasetE@Base 1.1.7
 (optional=privatelib)_ZN7randomx15codeShhPrefetchE@Base 1.1.7
 (optional=privatelib)_ZN7randomx15initDatasetItemEP13randomx_cachePhm@Base 1.1.7
 (optional=privatelib)_ZN7randomx16AlignedAllocatorILm64EE10freeMemoryEPvm@Base 1.1.7
 (optional=privatelib)_ZN7randomx16AlignedAllocatorILm64EE11allocMemoryEm@Base 1.1.7
 (optional=privatelib)_ZN7randomx16initCacheCompileEP13randomx_cachePKvm@Base 1.1.7
 (optional=privatelib)_ZN7randomx18InterpretedLightVmINS_16AlignedAllocatorILm64EEELb0EE10setDatasetEP15randomx_dataset@Base 1.1.7
 (optional=privatelib)_ZN7randomx18InterpretedLightVmINS_16AlignedAllocatorILm64EEELb0EE11datasetReadEmRA8_m@Base 1.1.7
 (optional=privatelib)_ZN7randomx18InterpretedLightVmINS_16AlignedAllocatorILm64EEELb0EE15datasetPrefetchEm@Base 1.1.7
 (optional=privatelib)_ZN7randomx18InterpretedLightVmINS_16AlignedAllocatorILm64EEELb0EE8setCacheEP13randomx_cache@Base 1.1.7
 (optional=privatelib)_ZN7randomx18InterpretedLightVmINS_16AlignedAllocatorILm64EEELb0EED0Ev@Base 1.1.7
 (optional=privatelib)_ZN7randomx18InterpretedLightVmINS_16AlignedAllocatorILm64EEELb0EED1Ev@Base 1.1.7
 (optional=privatelib)_ZN7randomx18InterpretedLightVmINS_16AlignedAllocatorILm64EEELb0EED2Ev@Base 1.1.7
 (optional=privatelib)_ZN7randomx18InterpretedLightVmINS_16AlignedAllocatorILm64EEELb0EEdlEPv@Base 1.1.7
 (optional=privatelib)_ZN7randomx18InterpretedLightVmINS_16AlignedAllocatorILm64EEELb0EEnwEm@Base 1.1.7
 (optional=privatelib)_ZN7randomx18InterpretedLightVmINS_16AlignedAllocatorILm64EEELb1EE10setDatasetEP15randomx_dataset@Base 1.1.7
 (optional=privatelib)_ZN7randomx18InterpretedLightVmINS_16AlignedAllocatorILm64EEELb1EE11datasetReadEmRA8_m@Base 1.1.7
 (optional=privatelib)_ZN7randomx18InterpretedLightVmINS_16AlignedAllocatorILm64EEELb1EE15datasetPrefetchEm@Base 1.1.7
 (optional=privatelib)_ZN7randomx18InterpretedLightVmINS_16AlignedAllocatorILm64EEELb1EE8setCacheEP13randomx_cache@Base 1.1.7
 (optional=privatelib)_ZN7randomx18InterpretedLightVmINS_16AlignedAllocatorILm64EEELb1EED0Ev@Base 1.1.7
 (optional=privatelib)_ZN7randomx18InterpretedLightVmINS_16AlignedAllocatorILm64EEELb1EED1Ev@Base 1.1.7
 (optional=privatelib)_ZN7randomx18InterpretedLightVmINS_16AlignedAllocatorILm64EEELb1EED2Ev@Base 1.1.7
 (optional=privatelib)_ZN7randomx18InterpretedLightVmINS_16AlignedAllocatorILm64EEELb1EEdlEPv@Base 1.1.7
 (optional=privatelib)_ZN7randomx18InterpretedLightVmINS_16AlignedAllocatorILm64EEELb1EEnwEm@Base 1.1.7
 (optional=privatelib)_ZN7randomx18InterpretedLightVmINS_18LargePageAllocatorELb0EE10setDatasetEP15randomx_dataset@Base 1.1.7
 (optional=privatelib)_ZN7randomx18InterpretedLightVmINS_18LargePageAllocatorELb0EE11datasetReadEmRA8_m@Base 1.1.7
 (optional=privatelib)_ZN7randomx18InterpretedLightVmINS_18LargePageAllocatorELb0EE15datasetPrefetchEm@Base 1.1.7
 (optional=privatelib)_ZN7randomx18InterpretedLightVmINS_18LargePageAllocatorELb0EE8setCacheEP13randomx_cache@Base 1.1.7
 (optional=privatelib)_ZN7randomx18InterpretedLightVmINS_18LargePageAllocatorELb0EED0Ev@Base 1.1.7
 (optional=privatelib)_ZN7randomx18InterpretedLightVmINS_18LargePageAllocatorELb0EED1Ev@Base 1.1.7
 (optional=privatelib)_ZN7randomx18InterpretedLightVmINS_18LargePageAllocatorELb0EED2Ev@Base 1.1.7
 (optional=privatelib)_ZN7randomx18InterpretedLightVmINS_18LargePageAllocatorELb0EEdlEPv@Base 1.1.7
 (optional=privatelib)_ZN7randomx18InterpretedLightVmINS_18LargePageAllocatorELb0EEnwEm@Base 1.1.7
 (optional=privatelib)_ZN7randomx18InterpretedLightVmINS_18LargePageAllocatorELb1EE10setDatasetEP15randomx_dataset@Base 1.1.7
 (optional=privatelib)_ZN7randomx18InterpretedLightVmINS_18LargePageAllocatorELb1EE11datasetReadEmRA8_m@Base 1.1.7
 (optional=privatelib)_ZN7randomx18InterpretedLightVmINS_18LargePageAllocatorELb1EE15datasetPrefetchEm@Base 1.1.7
 (optional=privatelib)_ZN7randomx18InterpretedLightVmINS_18LargePageAllocatorELb1EE8setCacheEP13randomx_cache@Base 1.1.7
 (optional=privatelib)_ZN7randomx18InterpretedLightVmINS_18LargePageAllocatorELb1EED0Ev@Base 1.1.7
 (optional=privatelib)_ZN7randomx18InterpretedLightVmINS_18LargePageAllocatorELb1EED1Ev@Base 1.1.7
 (optional=privatelib)_ZN7randomx18InterpretedLightVmINS_18LargePageAllocatorELb1EED2Ev@Base 1.1.7
 (optional=privatelib)_ZN7randomx18InterpretedLightVmINS_18LargePageAllocatorELb1EEdlEPv@Base 1.1.7
 (optional=privatelib)_ZN7randomx18InterpretedLightVmINS_18LargePageAllocatorELb1EEnwEm@Base 1.1.7
 (optional=privatelib)_ZN7randomx18LargePageAllocator10freeMemoryEPvm@Base 1.1.7
 (optional=privatelib)_ZN7randomx18LargePageAllocator11allocMemoryEm@Base 1.1.7
 (optional=privatelib)_ZN7randomx18executeSuperscalarERA8_mRNS_18SuperscalarProgramEPSt6vectorImSaImEE@Base 1.1.7
 (optional=privatelib)_ZN7randomx19generateSuperscalarERNS_18SuperscalarProgramERNS_15Blake2GeneratorE@Base 1.1.7
 (optional=privatelib)_ZN7randomx20AssemblyGeneratorX8610h_IMUL_RCPERNS_11InstructionEi@Base 1.1.7
 (optional=privatelib)_ZN7randomx20AssemblyGeneratorX8610h_ISMULH_MERNS_11InstructionEi@Base 1.1.7
 (optional=privatelib)_ZN7randomx20AssemblyGeneratorX8610h_ISMULH_RERNS_11InstructionEi@Base 1.1.7
 (optional=privatelib)_ZN7randomx20AssemblyGeneratorX8611generateAsmERNS_18SuperscalarProgramE@Base 1.1.7
 (optional=privatelib)_ZN7randomx20AssemblyGeneratorX8612generateCodeERNS_11InstructionEi@Base 1.1.7
 (optional=privatelib)_ZN7randomx20AssemblyGeneratorX8613genAddressImmERNS_11InstructionE@Base 1.1.7
 (optional=privatelib)_ZN7randomx20AssemblyGeneratorX8613genAddressRegERNS_11InstructionEPKc@Base 1.1.7
 (optional=privatelib)_ZN7randomx20AssemblyGeneratorX8615generateProgramERNS_7ProgramE@Base 1.1.7
 (optional=privatelib)_ZN7randomx20AssemblyGeneratorX8616genAddressRegDstERNS_11InstructionEi@Base 1.1.7
 (optional=privatelib)_ZN7randomx20AssemblyGeneratorX865h_NOPERNS_11InstructionEi@Base 1.1.7
 (optional=privatelib)_ZN7randomx20AssemblyGeneratorX866engineE@Base 1.1.7
 (optional=privatelib)_ZN7randomx20AssemblyGeneratorX868h_FADD_MERNS_11InstructionEi@Base 1.1.7
 (optional=privatelib)_ZN7randomx20AssemblyGeneratorX868h_FADD_RERNS_11InstructionEi@Base 1.1.7
 (optional=privatelib)_ZN7randomx20AssemblyGeneratorX868h_FDIV_MERNS_11InstructionEi@Base 1.1.7
 (optional=privatelib)_ZN7randomx20AssemblyGeneratorX868h_FMUL_RERNS_11InstructionEi@Base 1.1.7
 (optional=privatelib)_ZN7randomx20AssemblyGeneratorX868h_FSUB_MERNS_11InstructionEi@Base 1.1.7
 (optional=privatelib)_ZN7randomx20AssemblyGeneratorX868h_FSUB_RERNS_11InstructionEi@Base 1.1.7
 (optional=privatelib)_ZN7randomx20AssemblyGeneratorX868h_IADD_MERNS_11InstructionEi@Base 1.1.7
 (optional=privatelib)_ZN7randomx20AssemblyGeneratorX868h_IMUL_MERNS_11InstructionEi@Base 1.1.7
 (optional=privatelib)_ZN7randomx20AssemblyGeneratorX868h_IMUL_RERNS_11InstructionEi@Base 1.1.7
 (optional=privatelib)_ZN7randomx20AssemblyGeneratorX868h_INEG_RERNS_11InstructionEi@Base 1.1.7
 (optional=privatelib)_ZN7randomx20AssemblyGeneratorX868h_IROL_RERNS_11InstructionEi@Base 1.1.7
 (optional=privatelib)_ZN7randomx20AssemblyGeneratorX868h_IROR_RERNS_11InstructionEi@Base 1.1.7
 (optional=privatelib)_ZN7randomx20AssemblyGeneratorX868h_ISTOREERNS_11InstructionEi@Base 1.1.7
 (optional=privatelib)_ZN7randomx20AssemblyGeneratorX868h_ISUB_MERNS_11InstructionEi@Base 1.1.7
 (optional=privatelib)_ZN7randomx20AssemblyGeneratorX868h_ISUB_RERNS_11InstructionEi@Base 1.1.7
 (optional=privatelib)_ZN7randomx20AssemblyGeneratorX868h_IXOR_MERNS_11InstructionEi@Base 1.1.7
 (optional=privatelib)_ZN7randomx20AssemblyGeneratorX868h_IXOR_RERNS_11InstructionEi@Base 1.1.7
 (optional=privatelib)_ZN7randomx20AssemblyGeneratorX868tracefltERNS_11InstructionE@Base 1.1.7
 (optional=privatelib)_ZN7randomx20AssemblyGeneratorX868traceintERNS_11InstructionE@Base 1.1.7
 (optional=privatelib)_ZN7randomx20AssemblyGeneratorX868tracenopERNS_11InstructionE@Base 1.1.7
 (optional=privatelib)_ZN7randomx20AssemblyGeneratorX869generateCERNS_18SuperscalarProgramE@Base 1.1.7
 (optional=privatelib)_ZN7randomx20AssemblyGeneratorX869h_CBRANCHERNS_11InstructionEi@Base 1.1.7
 (optional=privatelib)_ZN7randomx20AssemblyGeneratorX869h_CFROUNDERNS_11InstructionEi@Base 1.1.7
 (optional=privatelib)_ZN7randomx20AssemblyGeneratorX869h_FSCAL_RERNS_11InstructionEi@Base 1.1.7
 (optional=privatelib)_ZN7randomx20AssemblyGeneratorX869h_FSQRT_RERNS_11InstructionEi@Base 1.1.7
 (optional=privatelib)_ZN7randomx20AssemblyGeneratorX869h_FSWAP_RERNS_11InstructionEi@Base 1.1.7
 (optional=privatelib)_ZN7randomx20AssemblyGeneratorX869h_IADD_RSERNS_11InstructionEi@Base 1.1.7
 (optional=privatelib)_ZN7randomx20AssemblyGeneratorX869h_IMULH_MERNS_11InstructionEi@Base 1.1.7
 (optional=privatelib)_ZN7randomx20AssemblyGeneratorX869h_IMULH_RERNS_11InstructionEi@Base 1.1.7
 (optional=privatelib)_ZN7randomx20AssemblyGeneratorX869h_ISWAP_RERNS_11InstructionEi@Base 1.1.7
 (optional=privatelib)_ZN7randomx22SuperscalarInstruction4NullE@Base 1.1.7
 (optional=privatelib)_ZN7randomx26SuperscalarInstructionInfo3NOPE@Base 1.1.7
 (optional=privatelib)_ZN7randomx26SuperscalarInstructionInfo6IMUL_RE@Base 1.1.7
 (optional=privatelib)_ZN7randomx26SuperscalarInstructionInfo6IROR_CE@Base 1.1.7
 (optional=privatelib)_ZN7randomx26SuperscalarInstructionInfo6ISUB_RE@Base 1.1.7
 (optional=privatelib)_ZN7randomx26SuperscalarInstructionInfo6IXOR_RE@Base 1.1.7
 (optional=privatelib)_ZN7randomx26SuperscalarInstructionInfo7IADD_C7E@Base 1.1.7
 (optional=privatelib)_ZN7randomx26SuperscalarInstructionInfo7IADD_C8E@Base 1.1.7
 (optional=privatelib)_ZN7randomx26SuperscalarInstructionInfo7IADD_C9E@Base 1.1.7
 (optional=privatelib)_ZN7randomx26SuperscalarInstructionInfo7IADD_RSE@Base 1.1.7
 (optional=privatelib)_ZN7randomx26SuperscalarInstructionInfo7IMULH_RE@Base 1.1.7
 (optional=privatelib)_ZN7randomx26SuperscalarInstructionInfo7IXOR_C7E@Base 1.1.7
 (optional=privatelib)_ZN7randomx26SuperscalarInstructionInfo7IXOR_C8E@Base 1.1.7
 (optional=privatelib)_ZN7randomx26SuperscalarInstructionInfo7IXOR_C9E@Base 1.1.7
 (optional=privatelib)_ZN7randomx26SuperscalarInstructionInfo8IMUL_RCPE@Base 1.1.7
 (optional=privatelib)_ZN7randomx26SuperscalarInstructionInfo8ISMULH_RE@Base 1.1.7
 (optional=privatelib)_ZN7randomx26SuperscalarInstructionInfoC1EPKcNS_26SuperscalarInstructionTypeERKNS_7MacroOpEi@Base 1.1.7
 (optional=privatelib)_ZN7randomx26SuperscalarInstructionInfoC1ILm3EEEPKcNS_26SuperscalarInstructionTypeERAT__KNS_7MacroOpEiii@Base 1.1.7
 (optional=privatelib)_ZN7randomx26SuperscalarInstructionInfoC2EPKcNS_26SuperscalarInstructionTypeERKNS_7MacroOpEi@Base 1.1.7
 (optional=privatelib)_ZN7randomx26SuperscalarInstructionInfoC2ILm3EEEPKcNS_26SuperscalarInstructionTypeERAT__KNS_7MacroOpEiii@Base 1.1.7
 (optional=privatelib)_ZN7randomx26SuperscalarInstructionInfoD1Ev@Base 1.1.7
 (optional=privatelib)_ZN7randomx26SuperscalarInstructionInfoD2Ev@Base 1.1.7
 (optional=privatelib)_ZN7randomx26codeReadDatasetLightSshFinE@Base 1.1.7
 (optional=privatelib)_ZN7randomx27codeReadDatasetLightSshInitE@Base 1.1.7
 (optional=privatelib)_ZN7randomx3CpuC1Ev@Base 1.1.7
 (optional=privatelib)_ZN7randomx3CpuC2Ev@Base 1.1.7
 (optional=privatelib)_ZN7randomx6VmBaseINS_16AlignedAllocatorILm64EEELb0EE11hashAndFillEPvmPm@Base 1.1.7
 (optional=privatelib)_ZN7randomx6VmBaseINS_16AlignedAllocatorILm64EEELb0EE14getFinalResultEPvm@Base 1.1.7
 (optional=privatelib)_ZN7randomx6VmBaseINS_16AlignedAllocatorILm64EEELb0EE14initScratchpadEPv@Base 1.1.7
 (optional=privatelib)_ZN7randomx6VmBaseINS_16AlignedAllocatorILm64EEELb0EE15generateProgramEPv@Base 1.1.7
 (optional=privatelib)_ZN7randomx6VmBaseINS_16AlignedAllocatorILm64EEELb0EE8allocateEv@Base 1.1.7
 (optional=privatelib)_ZN7randomx6VmBaseINS_16AlignedAllocatorILm64EEELb0EED0Ev@Base 1.1.7
 (optional=privatelib)_ZN7randomx6VmBaseINS_16AlignedAllocatorILm64EEELb0EED1Ev@Base 1.1.7
 (optional=privatelib)_ZN7randomx6VmBaseINS_16AlignedAllocatorILm64EEELb0EED2Ev@Base 1.1.7
 (optional=privatelib)_ZN7randomx6VmBaseINS_16AlignedAllocatorILm64EEELb1EE11hashAndFillEPvmPm@Base 1.1.7
 (optional=privatelib)_ZN7randomx6VmBaseINS_16AlignedAllocatorILm64EEELb1EE14getFinalResultEPvm@Base 1.1.7
 (optional=privatelib)_ZN7randomx6VmBaseINS_16AlignedAllocatorILm64EEELb1EE14initScratchpadEPv@Base 1.1.7
 (optional=privatelib)_ZN7randomx6VmBaseINS_16AlignedAllocatorILm64EEELb1EE15generateProgramEPv@Base 1.1.7
 (optional=privatelib)_ZN7randomx6VmBaseINS_16AlignedAllocatorILm64EEELb1EE8allocateEv@Base 1.1.7
 (optional=privatelib)_ZN7randomx6VmBaseINS_16AlignedAllocatorILm64EEELb1EED0Ev@Base 1.1.7
 (optional=privatelib)_ZN7randomx6VmBaseINS_16AlignedAllocatorILm64EEELb1EED1Ev@Base 1.1.7
 (optional=privatelib)_ZN7randomx6VmBaseINS_16AlignedAllocatorILm64EEELb1EED2Ev@Base 1.1.7
 (optional=privatelib)_ZN7randomx6VmBaseINS_18LargePageAllocatorELb0EE11hashAndFillEPvmPm@Base 1.1.7
 (optional=privatelib)_ZN7randomx6VmBaseINS_18LargePageAllocatorELb0EE14getFinalResultEPvm@Base 1.1.7
 (optional=privatelib)_ZN7randomx6VmBaseINS_18LargePageAllocatorELb0EE14initScratchpadEPv@Base 1.1.7
 (optional=privatelib)_ZN7randomx6VmBaseINS_18LargePageAllocatorELb0EE15generateProgramEPv@Base 1.1.7
 (optional=privatelib)_ZN7randomx6VmBaseINS_18LargePageAllocatorELb0EE8allocateEv@Base 1.1.7
 (optional=privatelib)_ZN7randomx6VmBaseINS_18LargePageAllocatorELb0EED0Ev@Base 1.1.7
 (optional=privatelib)_ZN7randomx6VmBaseINS_18LargePageAllocatorELb0EED1Ev@Base 1.1.7
 (optional=privatelib)_ZN7randomx6VmBaseINS_18LargePageAllocatorELb0EED2Ev@Base 1.1.7
 (optional=privatelib)_ZN7randomx6VmBaseINS_18LargePageAllocatorELb1EE11hashAndFillEPvmPm@Base 1.1.7
 (optional=privatelib)_ZN7randomx6VmBaseINS_18LargePageAllocatorELb1EE14getFinalResultEPvm@Base 1.1.7
 (optional=privatelib)_ZN7randomx6VmBaseINS_18LargePageAllocatorELb1EE14initScratchpadEPv@Base 1.1.7
 (optional=privatelib)_ZN7randomx6VmBaseINS_18LargePageAllocatorELb1EE15generateProgramEPv@Base 1.1.7
 (optional=privatelib)_ZN7randomx6VmBaseINS_18LargePageAllocatorELb1EE8allocateEv@Base 1.1.7
 (optional=privatelib)_ZN7randomx6VmBaseINS_18LargePageAllocatorELb1EED0Ev@Base 1.1.7
 (optional=privatelib)_ZN7randomx6VmBaseINS_18LargePageAllocatorELb1EED1Ev@Base 1.1.7
 (optional=privatelib)_ZN7randomx6VmBaseINS_18LargePageAllocatorELb1EED2Ev@Base 1.1.7
 (optional=privatelib)_ZN7randomx6slot_3E@Base 1.1.7
 (optional=privatelib)_ZN7randomx6slot_4E@Base 1.1.7
 (optional=privatelib)_ZN7randomx6slot_7E@Base 1.1.7
 (optional=privatelib)_ZN7randomx6slot_8E@Base 1.1.7
 (optional=privatelib)_ZN7randomx6slot_9E@Base 1.1.7
 (optional=privatelib)_ZN7randomx7MacroOp12TestJz_fusedE@Base 1.1.7
 (optional=privatelib)_ZN7randomx7MacroOp5Mul_rE@Base 1.1.7
 (optional=privatelib)_ZN7randomx7MacroOp6Add_riE@Base 1.1.7
 (optional=privatelib)_ZN7randomx7MacroOp6Add_rrE@Base 1.1.7
 (optional=privatelib)_ZN7randomx7MacroOp6Cmp_riE@Base 1.1.7
 (optional=privatelib)_ZN7randomx7MacroOp6Imul_rE@Base 1.1.7
 (optional=privatelib)_ZN7randomx7MacroOp6Mov_rrE@Base 1.1.7
 (optional=privatelib)_ZN7randomx7MacroOp6Ror_riE@Base 1.1.7
 (optional=privatelib)_ZN7randomx7MacroOp6Sub_rrE@Base 1.1.7
 (optional=privatelib)_ZN7randomx7MacroOp6Xor_riE@Base 1.1.7
 (optional=privatelib)_ZN7randomx7MacroOp6Xor_rrE@Base 1.1.7
 (optional=privatelib)_ZN7randomx7MacroOp7Imul_rrE@Base 1.1.7
 (optional=privatelib)_ZN7randomx7MacroOp7Lea_sibE@Base 1.1.7
 (optional=privatelib)_ZN7randomx7MacroOp7Ror_rclE@Base 1.1.7
 (optional=privatelib)_ZN7randomx7MacroOp7Setcc_rE@Base 1.1.7
 (optional=privatelib)_ZN7randomx7MacroOp8Mov_ri64E@Base 1.1.7
 (optional=privatelib)_ZN7randomx7MacroOp8Xor_selfE@Base 1.1.7
 (optional=privatelib)_ZN7randomx7slot_10E@Base 1.1.7
 (optional=privatelib)_ZN7randomx7slot_3LE@Base 1.1.7
 (optional=privatelib)_ZN7randomx9initCacheEP13randomx_cachePKvm@Base 1.1.7
 (optional=privatelib)_ZNK7randomx11Instruction10h_IMUL_RCPERSo@Base 1.1.7
 (optional=privatelib)_ZNK7randomx11Instruction10h_ISMULH_MERSo@Base 1.1.7
 (optional=privatelib)_ZNK7randomx11Instruction10h_ISMULH_RERSo@Base 1.1.7
 (optional=privatelib)_ZNK7randomx11Instruction13genAddressImmERSo@Base 1.1.7
 (optional=privatelib)_ZNK7randomx11Instruction13genAddressRegERSoi@Base 1.1.7
 (optional=privatelib)_ZNK7randomx11Instruction16genAddressRegDstERSoi@Base 1.1.7
 (optional=privatelib)_ZNK7randomx11Instruction5h_NOPERSo@Base 1.1.7
 (optional=privatelib)_ZNK7randomx11Instruction5printERSo@Base 1.1.7
 (optional=privatelib)_ZNK7randomx11Instruction8h_FADD_MERSo@Base 1.1.7
 (optional=privatelib)_ZNK7randomx11Instruction8h_FADD_RERSo@Base 1.1.7
 (optional=privatelib)_ZNK7randomx11Instruction8h_FDIV_MERSo@Base 1.1.7
 (optional=privatelib)_ZNK7randomx11Instruction8h_FMUL_RERSo@Base 1.1.7
 (optional=privatelib)_ZNK7randomx11Instruction8h_FSUB_MERSo@Base 1.1.7
 (optional=privatelib)_ZNK7randomx11Instruction8h_FSUB_RERSo@Base 1.1.7
 (optional=privatelib)_ZNK7randomx11Instruction8h_IADD_MERSo@Base 1.1.7
 (optional=privatelib)_ZNK7randomx11Instruction8h_IMUL_MERSo@Base 1.1.7
 (optional=privatelib)_ZNK7randomx11Instruction8h_IMUL_RERSo@Base 1.1.7
 (optional=privatelib)_ZNK7randomx11Instruction8h_INEG_RERSo@Base 1.1.7
 (optional=privatelib)_ZNK7randomx11Instruction8h_IROL_RERSo@Base 1.1.7
 (optional=privatelib)_ZNK7randomx11Instruction8h_IROR_RERSo@Base 1.1.7
 (optional=privatelib)_ZNK7randomx11Instruction8h_ISTOREERSo@Base 1.1.7
 (optional=privatelib)_ZNK7randomx11Instruction8h_ISUB_MERSo@Base 1.1.7
 (optional=privatelib)_ZNK7randomx11Instruction8h_ISUB_RERSo@Base 1.1.7
 (optional=privatelib)_ZNK7randomx11Instruction8h_IXOR_MERSo@Base 1.1.7
 (optional=privatelib)_ZNK7randomx11Instruction8h_IXOR_RERSo@Base 1.1.7
 (optional=privatelib)_ZNK7randomx11Instruction9h_CBRANCHERSo@Base 1.1.7
 (optional=privatelib)_ZNK7randomx11Instruction9h_CFROUNDERSo@Base 1.1.7
 (optional=privatelib)_ZNK7randomx11Instruction9h_FSCAL_RERSo@Base 1.1.7
 (optional=privatelib)_ZNK7randomx11Instruction9h_FSQRT_RERSo@Base 1.1.7
 (optional=privatelib)_ZNK7randomx11Instruction9h_FSWAP_RERSo@Base 1.1.7
 (optional=privatelib)_ZNK7randomx11Instruction9h_IADD_RSERSo@Base 1.1.7
 (optional=privatelib)_ZNK7randomx11Instruction9h_IMULH_MERSo@Base 1.1.7
 (optional=privatelib)_ZNK7randomx11Instruction9h_IMULH_RERSo@Base 1.1.7
 (optional=privatelib)_ZNK7randomx11Instruction9h_ISWAP_RERSo@Base 1.1.7
 (optional=privatelib)_ZNKSt5ctypeIcE8do_widenEc@Base 1.1.7
 (optional=privatelib)_ZNSt6vectorIN7randomx7MacroOpESaIS1_EE12emplace_backIJS1_EEEvDpOT_@Base 1.1.7
 (optional=privatelib)_ZNSt6vectorIN7randomx7MacroOpESaIS1_EE17_M_realloc_insertIJS1_EEEvN9__gnu_cxx17__normal_iteratorIPS1_S3_EEDpOT_@Base 1.1.7
 (optional=privatelib)_ZNSt6vectorIiSaIiEE12emplace_backIJiEEEvDpOT_@Base 1.1.7
 (optional=privatelib)_ZNSt6vectorIiSaIiEE17_M_realloc_insertIJRKiEEEvN9__gnu_cxx17__normal_iteratorIPiS1_EEDpOT_@Base 1.1.7
 (optional=privatelib)_ZNSt6vectorIiSaIiEE17_M_realloc_insertIJiEEEvN9__gnu_cxx17__normal_iteratorIPiS1_EEDpOT_@Base 1.1.7
 (optional=privatelib)_ZNSt6vectorImSaImEE17_M_realloc_insertIJRKmEEEvN9__gnu_cxx17__normal_iteratorIPmS1_EEDpOT_@Base 1.1.7
 (optional=privatelib)_ZTI10randomx_vm@Base 1.1.7
 (optional=privatelib)_ZTIN7randomx10CompiledVmINS_16AlignedAllocatorILm64EEELb0ELb0EEE@Base 1.1.7
 (optional=privatelib)_ZTIN7randomx10CompiledVmINS_16AlignedAllocatorILm64EEELb0ELb1EEE@Base 1.1.7
 (optional=privatelib)_ZTIN7randomx10CompiledVmINS_16AlignedAllocatorILm64EEELb1ELb0EEE@Base 1.1.7
 (optional=privatelib)_ZTIN7randomx10CompiledVmINS_16AlignedAllocatorILm64EEELb1ELb1EEE@Base 1.1.7
 (optional=privatelib)_ZTIN7randomx10CompiledVmINS_18LargePageAllocatorELb0ELb0EEE@Base 1.1.7
 (optional=privatelib)_ZTIN7randomx10CompiledVmINS_18LargePageAllocatorELb0ELb1EEE@Base 1.1.7
 (optional=privatelib)_ZTIN7randomx10CompiledVmINS_18LargePageAllocatorELb1ELb0EEE@Base 1.1.7
 (optional=privatelib)_ZTIN7randomx10CompiledVmINS_18LargePageAllocatorELb1ELb1EEE@Base 1.1.7
 (optional=privatelib)_ZTIN7randomx13InterpretedVmINS_16AlignedAllocatorILm64EEELb0EEE@Base 1.1.7
 (optional=privatelib)_ZTIN7randomx13InterpretedVmINS_16AlignedAllocatorILm64EEELb1EEE@Base 1.1.7
 (optional=privatelib)_ZTIN7randomx13InterpretedVmINS_18LargePageAllocatorELb0EEE@Base 1.1.7
 (optional=privatelib)_ZTIN7randomx13InterpretedVmINS_18LargePageAllocatorELb1EEE@Base 1.1.7
 (optional=privatelib)_ZTIN7randomx15BytecodeMachineE@Base 1.1.7
 (optional=privatelib)_ZTIN7randomx15CompiledLightVmINS_16AlignedAllocatorILm64EEELb0ELb0EEE@Base 1.1.7
 (optional=privatelib)_ZTIN7randomx15CompiledLightVmINS_16AlignedAllocatorILm64EEELb0ELb1EEE@Base 1.1.7
 (optional=privatelib)_ZTIN7randomx15CompiledLightVmINS_16AlignedAllocatorILm64EEELb1ELb0EEE@Base 1.1.7
 (optional=privatelib)_ZTIN7randomx15CompiledLightVmINS_16AlignedAllocatorILm64EEELb1ELb1EEE@Base 1.1.7
 (optional=privatelib)_ZTIN7randomx15CompiledLightVmINS_18LargePageAllocatorELb0ELb0EEE@Base 1.1.7
 (optional=privatelib)_ZTIN7randomx15CompiledLightVmINS_18LargePageAllocatorELb0ELb1EEE@Base 1.1.7
 (optional=privatelib)_ZTIN7randomx15CompiledLightVmINS_18LargePageAllocatorELb1ELb0EEE@Base 1.1.7
 (optional=privatelib)_ZTIN7randomx15CompiledLightVmINS_18LargePageAllocatorELb1ELb1EEE@Base 1.1.7
 (optional=privatelib)_ZTIN7randomx18InterpretedLightVmINS_16AlignedAllocatorILm64EEELb0EEE@Base 1.1.7
 (optional=privatelib)_ZTIN7randomx18InterpretedLightVmINS_16AlignedAllocatorILm64EEELb1EEE@Base 1.1.7
 (optional=privatelib)_ZTIN7randomx18InterpretedLightVmINS_18LargePageAllocatorELb0EEE@Base 1.1.7
 (optional=privatelib)_ZTIN7randomx18InterpretedLightVmINS_18LargePageAllocatorELb1EEE@Base 1.1.7
 (optional=privatelib)_ZTIN7randomx6VmBaseINS_16AlignedAllocatorILm64EEELb0EEE@Base 1.1.7
 (optional=privatelib)_ZTIN7randomx6VmBaseINS_16AlignedAllocatorILm64EEELb1EEE@Base 1.1.7
 (optional=privatelib)_ZTIN7randomx6VmBaseINS_18LargePageAllocatorELb0EEE@Base 1.1.7
 (optional=privatelib)_ZTIN7randomx6VmBaseINS_18LargePageAllocatorELb1EEE@Base 1.1.7
 (optional=privatelib)_ZTS10randomx_vm@Base 1.1.7
 (optional=privatelib)_ZTSN7randomx10CompiledVmINS_16AlignedAllocatorILm64EEELb0ELb0EEE@Base 1.1.7
 (optional=privatelib)_ZTSN7randomx10CompiledVmINS_16AlignedAllocatorILm64EEELb0ELb1EEE@Base 1.1.7
 (optional=privatelib)_ZTSN7randomx10CompiledVmINS_16AlignedAllocatorILm64EEELb1ELb0EEE@Base 1.1.7
 (optional=privatelib)_ZTSN7randomx10CompiledVmINS_16AlignedAllocatorILm64EEELb1ELb1EEE@Base 1.1.7
 (optional=privatelib)_ZTSN7randomx10CompiledVmINS_18LargePageAllocatorELb0ELb0EEE@Base 1.1.7
 (optional=privatelib)_ZTSN7randomx10CompiledVmINS_18LargePageAllocatorELb0ELb1EEE@Base 1.1.7
 (optional=privatelib)_ZTSN7randomx10CompiledVmINS_18LargePageAllocatorELb1ELb0EEE@Base 1.1.7
 (optional=privatelib)_ZTSN7randomx10CompiledVmINS_18LargePageAllocatorELb1ELb1EEE@Base 1.1.7
 (optional=privatelib)_ZTSN7randomx13InterpretedVmINS_16AlignedAllocatorILm64EEELb0EEE@Base 1.1.7
 (optional=privatelib)_ZTSN7randomx13InterpretedVmINS_16AlignedAllocatorILm64EEELb1EEE@Base 1.1.7
 (optional=privatelib)_ZTSN7randomx13InterpretedVmINS_18LargePageAllocatorELb0EEE@Base 1.1.7
 (optional=privatelib)_ZTSN7randomx13InterpretedVmINS_18LargePageAllocatorELb1EEE@Base 1.1.7
 (optional=privatelib)_ZTSN7randomx15BytecodeMachineE@Base 1.1.7
 (optional=privatelib)_ZTSN7randomx15CompiledLightVmINS_16AlignedAllocatorILm64EEELb0ELb0EEE@Base 1.1.7
 (optional=privatelib)_ZTSN7randomx15CompiledLightVmINS_16AlignedAllocatorILm64EEELb0ELb1EEE@Base 1.1.7
 (optional=privatelib)_ZTSN7randomx15CompiledLightVmINS_16AlignedAllocatorILm64EEELb1ELb0EEE@Base 1.1.7
 (optional=privatelib)_ZTSN7randomx15CompiledLightVmINS_16AlignedAllocatorILm64EEELb1ELb1EEE@Base 1.1.7
 (optional=privatelib)_ZTSN7randomx15CompiledLightVmINS_18LargePageAllocatorELb0ELb0EEE@Base 1.1.7
 (optional=privatelib)_ZTSN7randomx15CompiledLightVmINS_18LargePageAllocatorELb0ELb1EEE@Base 1.1.7
 (optional=privatelib)_ZTSN7randomx15CompiledLightVmINS_18LargePageAllocatorELb1ELb0EEE@Base 1.1.7
 (optional=privatelib)_ZTSN7randomx15CompiledLightVmINS_18LargePageAllocatorELb1ELb1EEE@Base 1.1.7
 (optional=privatelib)_ZTSN7randomx18InterpretedLightVmINS_16AlignedAllocatorILm64EEELb0EEE@Base 1.1.7
 (optional=privatelib)_ZTSN7randomx18InterpretedLightVmINS_16AlignedAllocatorILm64EEELb1EEE@Base 1.1.7
 (optional=privatelib)_ZTSN7randomx18InterpretedLightVmINS_18LargePageAllocatorELb0EEE@Base 1.1.7
 (optional=privatelib)_ZTSN7randomx18InterpretedLightVmINS_18LargePageAllocatorELb1EEE@Base 1.1.7
 (optional=privatelib)_ZTSN7randomx6VmBaseINS_16AlignedAllocatorILm64EEELb0EEE@Base 1.1.7
 (optional=privatelib)_ZTSN7randomx6VmBaseINS_16AlignedAllocatorILm64EEELb1EEE@Base 1.1.7
 (optional=privatelib)_ZTSN7randomx6VmBaseINS_18LargePageAllocatorELb0EEE@Base 1.1.7
 (optional=privatelib)_ZTSN7randomx6VmBaseINS_18LargePageAllocatorELb1EEE@Base 1.1.7
 (optional=privatelib)_ZTV10randomx_vm@Base 1.1.7
 (optional=privatelib)_ZTVN7randomx10CompiledVmINS_16AlignedAllocatorILm64EEELb0ELb0EEE@Base 1.1.7
 (optional=privatelib)_ZTVN7randomx10CompiledVmINS_16AlignedAllocatorILm64EEELb0ELb1EEE@Base 1.1.7
 (optional=privatelib)_ZTVN7randomx10CompiledVmINS_16AlignedAllocatorILm64EEELb1ELb0EEE@Base 1.1.7
 (optional=privatelib)_ZTVN7randomx10CompiledVmINS_16AlignedAllocatorILm64EEELb1ELb1EEE@Base 1.1.7
 (optional=privatelib)_ZTVN7randomx10CompiledVmINS_18LargePageAllocatorELb0ELb0EEE@Base 1.1.7
 (optional=privatelib)_ZTVN7randomx10CompiledVmINS_18LargePageAllocatorELb0ELb1EEE@Base 1.1.7
 (optional=privatelib)_ZTVN7randomx10CompiledVmINS_18LargePageAllocatorELb1ELb0EEE@Base 1.1.7
 (optional=privatelib)_ZTVN7randomx10CompiledVmINS_18LargePageAllocatorELb1ELb1EEE@Base 1.1.7
 (optional=privatelib)_ZTVN7randomx13InterpretedVmINS_16AlignedAllocatorILm64EEELb0EEE@Base 1.1.7
 (optional=privatelib)_ZTVN7randomx13InterpretedVmINS_16AlignedAllocatorILm64EEELb1EEE@Base 1.1.7
 (optional=privatelib)_ZTVN7randomx13InterpretedVmINS_18LargePageAllocatorELb0EEE@Base 1.1.7
 (optional=privatelib)_ZTVN7randomx13InterpretedVmINS_18LargePageAllocatorELb1EEE@Base 1.1.7
 (optional=privatelib)_ZTVN7randomx15CompiledLightVmINS_16AlignedAllocatorILm64EEELb0ELb0EEE@Base 1.1.7
 (optional=privatelib)_ZTVN7randomx15CompiledLightVmINS_16AlignedAllocatorILm64EEELb0ELb1EEE@Base 1.1.7
 (optional=privatelib)_ZTVN7randomx15CompiledLightVmINS_16AlignedAllocatorILm64EEELb1ELb0EEE@Base 1.1.7
 (optional=privatelib)_ZTVN7randomx15CompiledLightVmINS_16AlignedAllocatorILm64EEELb1ELb1EEE@Base 1.1.7
 (optional=privatelib)_ZTVN7randomx15CompiledLightVmINS_18LargePageAllocatorELb0ELb0EEE@Base 1.1.7
 (optional=privatelib)_ZTVN7randomx15CompiledLightVmINS_18LargePageAllocatorELb0ELb1EEE@Base 1.1.7
 (optional=privatelib)_ZTVN7randomx15CompiledLightVmINS_18LargePageAllocatorELb1ELb0EEE@Base 1.1.7
 (optional=privatelib)_ZTVN7randomx15CompiledLightVmINS_18LargePageAllocatorELb1ELb1EEE@Base 1.1.7
 (optional=privatelib)_ZTVN7randomx18InterpretedLightVmINS_16AlignedAllocatorILm64EEELb0EEE@Base 1.1.7
 (optional=privatelib)_ZTVN7randomx18InterpretedLightVmINS_16AlignedAllocatorILm64EEELb1EEE@Base 1.1.7
 (optional=privatelib)_ZTVN7randomx18InterpretedLightVmINS_18LargePageAllocatorELb0EEE@Base 1.1.7
 (optional=privatelib)_ZTVN7randomx18InterpretedLightVmINS_18LargePageAllocatorELb1EEE@Base 1.1.7
 (optional=privatelib)_ZTVN7randomx6VmBaseINS_16AlignedAllocatorILm64EEELb0EEE@Base 1.1.7
 (optional=privatelib)_ZTVN7randomx6VmBaseINS_16AlignedAllocatorILm64EEELb1EEE@Base 1.1.7
 (optional=privatelib)_ZTVN7randomx6VmBaseINS_18LargePageAllocatorELb0EEE@Base 1.1.7
 (optional=privatelib)_ZTVN7randomx6VmBaseINS_18LargePageAllocatorELb1EEE@Base 1.1.7
 randomx_alloc_cache@Base 1.1.7
 randomx_alloc_dataset@Base 1.1.7
 (optional=privatelib)randomx_argon2_fill_memory_blocks@Base 1.1.7
 (optional=privatelib)randomx_argon2_fill_segment_avx2@Base 1.1.7
 (optional=privatelib)randomx_argon2_fill_segment_ref@Base 1.1.7
 (optional=privatelib)randomx_argon2_fill_segment_ssse3@Base 1.1.7
 (optional=privatelib)randomx_argon2_impl_avx2@Base 1.1.7
 (optional=privatelib)randomx_argon2_impl_ssse3@Base 1.1.7
 (optional=privatelib)randomx_argon2_index_alpha@Base 1.1.7
 (optional=privatelib)randomx_argon2_initialize@Base 1.1.7
 (optional=privatelib)randomx_argon2_validate_inputs@Base 1.1.7
 (optional=privatelib)randomx_blake2b@Base 1.1.7
 (optional=privatelib)randomx_blake2b_final@Base 1.1.7
 (optional=privatelib)randomx_blake2b_init@Base 1.1.7
 (optional=privatelib)randomx_blake2b_init_key@Base 1.1.7
 (optional=privatelib)randomx_blake2b_init_param@Base 1.1.7
 (optional=privatelib)randomx_blake2b_long@Base 1.1.7
 (optional=privatelib)randomx_blake2b_update@Base 1.1.7
 randomx_calculate_hash@Base 1.1.7
 randomx_calculate_hash_first@Base 1.1.7
 randomx_calculate_hash_next@Base 1.1.7
 randomx_create_vm@Base 1.1.7
 (optional=privatelib)randomx_dataset_init@Base 1.1.7
 randomx_dataset_item_count@Base 1.1.7
 randomx_destroy_vm@Base 1.1.7
 randomx_get_dataset_memory@Base 1.1.7
 randomx_get_flags@Base 1.1.7
 randomx_init_cache@Base 1.1.7
 randomx_init_dataset@Base 1.1.7
 (optional=privatelib)randomx_prefetch_scratchpad@Base 1.1.7
 (optional=privatelib)randomx_prefetch_scratchpad_end@Base 1.1.7
 (optional=privatelib)randomx_program_end@Base 1.1.7
 (optional=privatelib)randomx_program_epilogue@Base 1.1.7
 (optional=privatelib)randomx_program_loop_begin@Base 1.1.7
 (optional=privatelib)randomx_program_loop_end@Base 1.1.7
 (optional=privatelib)randomx_program_loop_load@Base 1.1.7
 (optional=privatelib)randomx_program_loop_store@Base 1.1.7
 (optional=privatelib)randomx_program_prologue@Base 1.1.7
 (optional=privatelib)randomx_program_prologue_first_load@Base 1.1.7
 (optional=privatelib)randomx_program_read_dataset@Base 1.1.7
 (optional=privatelib)randomx_program_read_dataset_sshash_fin@Base 1.1.7
 (optional=privatelib)randomx_program_read_dataset_sshash_init@Base 1.1.7
 (optional=privatelib)randomx_program_start@Base 1.1.7
 (optional=privatelib)randomx_reciprocal@Base 1.1.7
 (optional=privatelib)randomx_reciprocal_fast@Base 1.1.7
 randomx_release_cache@Base 1.1.7
 randomx_release_dataset@Base 1.1.7
 (optional=privatelib)randomx_sshash_end@Base 1.1.7
 (optional=privatelib)randomx_sshash_init@Base 1.1.7
 (optional=privatelib)randomx_sshash_load@Base 1.1.7
 (optional=privatelib)randomx_sshash_prefetch@Base 1.1.7
 randomx_vm_set_cache@Base 1.1.7
 randomx_vm_set_dataset@Base 1.1.7
 (optional=privatelib)rxa2_fill_first_blocks@Base 1.1.7
 (optional=privatelib)rxa2_initial_hash@Base 1.1.7
